******************************************************************************
              TMS320C55x Linker PC v4.3.6                      
******************************************************************************
>> Linked Wed Nov 08 16:12:43 2017

OUTPUT FILE NAME:   <LED_control.out>
ENTRY POINT SYMBOL: "_c_int00"  address: 00023651


MEMORY CONFIGURATION

         name            origin    length      used     unused   attr    fill
                        (bytes)   (bytes)    (bytes)   (bytes)
----------------------  --------  ---------  --------  --------  ----  --------
PAGE 0:
  MMR                   00000000   000000c0  00000000  000000c0  RWIX
  DARAM0                000000c0   0000ff40  00003da8  0000c198  RWIX
  SARAM0                00010000   00010000  00000000  00010000  RWIX
  SARAM1                00020000   00020000  0000377c  0001c884  RWIX
  SARAM2                00040000   0000fe00  0000012a  0000fcd6  RWIX
  VECS                  0004fe00   00000200  00000100  00000100  RWIX
  PDROM                 00ff8000   00008000  00000000  00008000  R IX

PAGE 2:
  IOPORT                00000000   00020000  00000000  00020000  RWI 


SECTION ALLOCATION MAP
(Addresses surrounded by []'s are displayed for convenience only!)

output                                                          attributes/
section   page  orgn(bytes) orgn(words) len(bytes) len(words)   input sections
--------  ----  ----------- ----------- ---------- ----------   --------------
.pinit       0   [ 00040000 ]  00020000          *   00000000   UNINITIALIZED

.stack       0   [ 000000c0 ]  00000060          *   00001000   UNINITIALIZED
                 [ 000000c0 ]  00000060          *   00001000   --HOLE--

.data        0   [ 000000c0 ]  00000060          *   00000000   UNINITIALIZED

.sysstack 
*            0   [ 000020c0 ]  00001060          *   00000800   UNINITIALIZED
                 [ 000020c0 ]  00001060          *   00000800   --HOLE--

.const.1     0   [ 000030c0 ]  00001860          *   00000181   
                 [ 000030c0 ]  00001860          *   00000101   rts55x.lib : ctype.obj (.const:__ctypes_)
                 [ 000032c2 ]  00001961          *   00000080   main.obj (.const:_$P$T0$1)

.const.2     0   [ 000033c4 ]  000019e2          *   00000043   
                 [ 000033c4 ]  000019e2          *   00000043   LCD_FCN.obj (.const:.string)

.const.3     0   [ 0000344c ]  00001a26          *   0000003c   
                 [ 0000344c ]  00001a26          *   00000024   rts55x.lib : _printfi.obj (.const:.string)
                 [ 00003494 ]  00001a4a          *   0000000c              : _printfi.obj (.const)
                 [ 000034ac ]  00001a56          *   00000008              : divd.obj (.const:_initial_approx$1)
                 [ 000034bc ]  00001a5e          *   00000002              : divd.obj (.const)
                 [ 000034c0 ]  00001a60          *   00000002              : fltlid.obj (.const)

.bss         0   [ 000034c4 ]  00001a62          *   000001d4   UNINITIALIZED
                 [ 000034c4 ]  00001a62          *   00000100   LCD_FCN.obj (.bss)
                 [ 000036c4 ]  00001b62          *   000000c8   main.obj (.bss)
                 [ 00003854 ]  00001c2a          *   00000004   rts55x.lib : _lock.obj (.bss)
                 [ 0000385c ]  00001c2e          *   00000004              : exit.obj (.bss)
                 [ 00003864 ]  00001c32          *   00000003   sar.obj (.bss)
                 [ 0000386a ]  00001c35          *   00000001   usbstk5515bsl.lib : usbstk5515_i2c.obj (.bss)

.charrom     0   [ 0000386c ]  00001c36          *   00000300   UNINITIALIZED
                 [ 0000386c ]  00001c36          *   00000300   LCD_FCN.obj (.charrom)

.text        0     00020000  [ 00010000 ] 0000377c          *   
                   00020000  [ 00010000 ] 00001598          *   rts55x.lib : _printfi.obj (.text)
                   00021598  [ 00010acc ] 000005b8          *   LCD_FCN.obj (.text)
                   00021b50  [ 00010da8 ] 0000036c          *   rts55x.lib : divd.obj (.text)
                   00021ebc  [ 00010f5e ] 0000025e          *              : llmpy.obj (.text)
                   0002211a  [ 0001108d ] 00000259          *              : addd.obj (.text)
                   00022373  [ 000111b9+] 00000230          *   sar.obj (.text)
                   000225a3  [ 000112d1+] 00000223          *   AIC_func.obj (.text)
                   000227c6  [ 000113e3 ] 000001ea          *   main.obj (.text)
                   000229b0  [ 000114d8 ] 000001ea          *   rts55x.lib : cmpd.obj (.text)
                   00022b9a  [ 000115cd ] 00000156          *   usbstk5515bsl.lib : usbstk5515_gpio.obj (.text)
                   00022cf0  [ 00011678 ] 0000014c          *   rts55x.lib : mpyd.obj (.text)
                   00022e3c  [ 0001171e ] 0000013e          *   usbstk5515bsl.lib : usbstk5515_i2c.obj (.text)
                   00022f7a  [ 000117bd ] 000000c8          *   rts55x.lib : frcmpyd_div.obj (.text)
                   00023042  [ 00011821 ] 000000a1          *              : divul.obj (.text)
                   000230e3  [ 00011871+] 0000007d          *              : ltoa.obj (.text)
                   00023160  [ 000118b0 ] 00000076          *              : frcmpyd.obj (.text)
                   000231d6  [ 000118eb ] 00000072          *              : remul.obj (.text)
                   00023248  [ 00011924 ] 00000070          *              : sprintf.obj (.text)
                   000232b8  [ 0001195c ] 0000006f          *              : fixdli.obj (.text)
                   00023327  [ 00011993+] 0000006b          *   55xdspx_LARGE.lib : fir.obj (.text)
                   00023392  [ 000119c9 ] 00000067          *   rts55x.lib : fltlid.obj (.text)
                   000233f9  [ 000119fc+] 0000005c          *              : atoi.obj (.text)
                   00023455  [ 00011a2a+] 00000054          *   usbstk5515.obj (.text)
                   000234a9  [ 00011a54+] 0000004d          *   rts55x.lib : autoinit.obj (.text)
                   000234f6  [ 00011a7b ] 0000004b          *              : args_main.obj (.text)
                   00023541  [ 00011aa0+] 0000004b          *              : remli.obj (.text)
                   0002358c  [ 00011ac6 ] 00000048          *              : divli.obj (.text)
                   000235d4  [ 00011aea ] 0000003f          *              : memcpy.obj (.text)
                   00023613  [ 00011b09+] 0000003e          *              : exit.obj (.text)
                   00023651  [ 00011b28+] 00000034          *              : boot.obj (.text)
                   00023685  [ 00011b42+] 0000002a          *              : fixdi.obj (.text)
                   000236af  [ 00011b57+] 0000002a          *              : udiv.obj (.text)
                   000236d9  [ 00011b6c+] 00000023          *              : memccpy.obj (.text)
                   000236fc  [ 00011b7e ] 0000001c          *              : isinf.obj (.text)
                   00023718  [ 00011b8c ] 00000014          *              : subd.obj (.text)
                   0002372c  [ 00011b96 ] 00000013          *              : lmpy.obj (.text)
                   0002373f  [ 00011b9f+] 00000012          *              : _lock.obj (.text)
                   00023751  [ 00011ba8+] 00000011          *              : strlen.obj (.text)
                   00023762  [ 00011bb1 ] 00000010          *              : negd.obj (.text)
                   00023772  [ 00011bb9 ] 00000007          *              : exit.obj (.text:CIO_breakpoint)
                   00023779  [ 00011bbc+] 00000002          *              : vectors.obj (.text)
                   0002377b  [ 00011bbd ] 00000001          *   --HOLE-- [fill = 20]

.cinit       0   [ 00040000 ]  00020000          *   00000095   
                 [ 00040000 ]  00020000          *   00000070   main.obj (.cinit)
                 [ 000400e0 ]  00020070          *   0000000c   sar.obj (.cinit)
                 [ 000400f8 ]  0002007c          *   0000000a   rts55x.lib : _lock.obj (.cinit)
                 [ 0004010c ]  00020086          *   0000000a              : exit.obj (.cinit)
                 [ 00040120 ]  00020090          *   00000004   usbstk5515bsl.lib : usbstk5515_i2c.obj (.cinit)
                 [ 00040128 ]  00020094          *   00000001   --HOLE-- [fill = 0]

vectors      0     0004fe00  [ 00027f00 ] 00000100          *   
                   0004fe00  [ 00027f00 ] 00000100          *   rts55x.lib : vectors.obj (vectors)


GLOBAL SYMBOLS: SORTED ALPHABETICALLY BY Name 

abs. value/
byte addr   word addr   name
---------   ---------   ----
00000002                $TI_capability$C5500$CallingConvention
00000002                $TI_capability$C5500$MemoryModel
00000001                $TI_capability_requires_rev3
ffffffff                .bss
ffffffff                .data
ffffffff                .text
00023773                C$$EXIT
0002372c                I$$LMPY
000236af                I$$UDIV
000236c4                I$$UMOD
000225a3                _AIC3204_rset
000225c5                _AIC_init
000227bf                _AIC_off
00022767                _AIC_read2
0002279a                _AIC_write2
            00001ae2    _BOTTOM
            00001c36    _CharGen_6x8
00022505                _Get_Key_Human
000223fc                _Get_Sar_Key
00022373                _Init_SAR
00021705                _LCD_Display
00021607                _LCD_init
            00001b62    _LP
            00001b93    _LP2
000215b9                _OSD9616_multiSend
00021598                _OSD9616_send
0002238b                _Read_GPAIN1
0004fe00                _Reset
            00001a62    _TOP
00022c98                _USBSTK5515_GPIO_getInput
00022b9a                _USBSTK5515_GPIO_init
00022b9e                _USBSTK5515_GPIO_setDirection
00022c1b                _USBSTK5515_GPIO_setOutput
00022e5b                _USBSTK5515_I2C_close
00022e3c                _USBSTK5515_I2C_init
00022f01                _USBSTK5515_I2C_read
00022e64                _USBSTK5515_I2C_reset
00022e72                _USBSTK5515_I2C_write
0002349b                _USBSTK5515_init
00023455                _USBSTK5515_wait
00023489                _USBSTK5515_waitusec
            00001060    __STACK_END
00002000                __STACK_SIZE
00001000                __SYSSTACK_SIZE
ffffffff                ___binit__
ffffffff                ___bss__
ffffffff                ___c_args__
            00020000    ___cinit__
ffffffff                ___data__
ffffffff                ___edata__
ffffffff                ___end__
ffffffff                ___etext__
000236fc                ___isinf
ffffffff                ___pinit__
ffffffff                ___text__
0002211a                __addd
000234f6                __args_main
            00001c2e    __cleanup_ptr
00022b42                __cmpd
            00001860    __ctypes_
00021b72                __divd
0002358c                __divli
000220e5                __divlli
000236af                __divu
00023042                __divul
00021ff1                __divull
            00001c30    __dtors_ptr
00022b0e                __eqld
00023685                __fixdi
000232b8                __fixdli
00023392                __fltlid
00023160                __frcmpyd
00022f7a                __frcmpyd_div
00022ac4                __geqd
00022a79                __gtrd
00022a2c                __leqd
            00001c2a    __lock
000229e4                __lssd
00022cf0                __mpyd
0002372c                __mpyli
00021f39                __mpylli
00023762                __negd
000229b0                __neqd
0002374f                __nop
00021356                __printfi
00023747                __register_lock
0002373f                __register_unlock
00023541                __remli
00021f0a                __remlli
000236c4                __remu
000231d6                __remul
00021ebc                __remull
            00000060    __stack
00023718                __subd
            00001060    __sysstack
            00001c2c    __unlock
00023772                _abort
000233f9                _atoi
000234a9                _auto_init
00023651                _c_int00
000219ee                _clear_lcd
            00001bc4    _dbuffer_left
            00001bf7    _dbuffer_right
00023613                _exit
00023327                _fir
            00001c35    _i2c_timeout
            00001c33    _keyCnt1
            00001c34    _keyCnt2
000230e3                _ltoa
000227c6                _main
000236d9                _memccpy
000235d4                _memcpy
            00001c32    _preKey
00021b13                _printLetter
00021a91                _print_ti
000218b5                _printchar
00021996                _printstring
00023248                _sprintf
00023751                _strlen
ffffffff                binit
            00020000    cinit
ffffffff                edata
ffffffff                end
ffffffff                etext
ffffffff                pinit


GLOBAL SYMBOLS: SORTED BY Symbol Address 

abs. value/
byte addr   word addr   name
---------   ---------   ----
00000001                $TI_capability_requires_rev3
00000002                $TI_capability$C5500$CallingConvention
00000002                $TI_capability$C5500$MemoryModel
            00000060    __stack
00001000                __SYSSTACK_SIZE
00002000                __STACK_SIZE
            00001060    __STACK_END
            00001060    __sysstack
            00001860    __ctypes_
            00001a62    _TOP
            00001ae2    _BOTTOM
            00001b62    _LP
            00001b93    _LP2
            00001bc4    _dbuffer_left
            00001bf7    _dbuffer_right
            00001c2a    __lock
            00001c2c    __unlock
            00001c2e    __cleanup_ptr
            00001c30    __dtors_ptr
            00001c32    _preKey
            00001c33    _keyCnt1
            00001c34    _keyCnt2
            00001c35    _i2c_timeout
            00001c36    _CharGen_6x8
00021356                __printfi
00021598                _OSD9616_send
000215b9                _OSD9616_multiSend
00021607                _LCD_init
00021705                _LCD_Display
000218b5                _printchar
00021996                _printstring
000219ee                _clear_lcd
00021a91                _print_ti
00021b13                _printLetter
00021b72                __divd
00021ebc                __remull
00021f0a                __remlli
00021f39                __mpylli
00021ff1                __divull
000220e5                __divlli
0002211a                __addd
00022373                _Init_SAR
0002238b                _Read_GPAIN1
000223fc                _Get_Sar_Key
00022505                _Get_Key_Human
000225a3                _AIC3204_rset
000225c5                _AIC_init
00022767                _AIC_read2
0002279a                _AIC_write2
000227bf                _AIC_off
000227c6                _main
000229b0                __neqd
000229e4                __lssd
00022a2c                __leqd
00022a79                __gtrd
00022ac4                __geqd
00022b0e                __eqld
00022b42                __cmpd
00022b9a                _USBSTK5515_GPIO_init
00022b9e                _USBSTK5515_GPIO_setDirection
00022c1b                _USBSTK5515_GPIO_setOutput
00022c98                _USBSTK5515_GPIO_getInput
00022cf0                __mpyd
00022e3c                _USBSTK5515_I2C_init
00022e5b                _USBSTK5515_I2C_close
00022e64                _USBSTK5515_I2C_reset
00022e72                _USBSTK5515_I2C_write
00022f01                _USBSTK5515_I2C_read
00022f7a                __frcmpyd_div
00023042                __divul
000230e3                _ltoa
00023160                __frcmpyd
000231d6                __remul
00023248                _sprintf
000232b8                __fixdli
00023327                _fir
00023392                __fltlid
000233f9                _atoi
00023455                _USBSTK5515_wait
00023489                _USBSTK5515_waitusec
0002349b                _USBSTK5515_init
000234a9                _auto_init
000234f6                __args_main
00023541                __remli
0002358c                __divli
000235d4                _memcpy
00023613                _exit
00023651                _c_int00
00023685                __fixdi
000236af                I$$UDIV
000236af                __divu
000236c4                I$$UMOD
000236c4                __remu
000236d9                _memccpy
000236fc                ___isinf
00023718                __subd
0002372c                I$$LMPY
0002372c                __mpyli
0002373f                __register_unlock
00023747                __register_lock
0002374f                __nop
00023751                _strlen
00023762                __negd
00023772                _abort
00023773                C$$EXIT
            00020000    ___cinit__
            00020000    cinit
0004fe00                _Reset
ffffffff                .bss
ffffffff                .data
ffffffff                .text
ffffffff                ___binit__
ffffffff                ___bss__
ffffffff                ___c_args__
ffffffff                ___data__
ffffffff                ___edata__
ffffffff                ___end__
ffffffff                ___etext__
ffffffff                ___pinit__
ffffffff                ___text__
ffffffff                binit
ffffffff                edata
ffffffff                end
ffffffff                etext
ffffffff                pinit

[125 symbols]
